; Function Attrs: mustprogress nofree norecurse nosync nounwind willreturn memory(read, inaccessiblemem: none) uwtable
define dso_local { ptr, i64 } @_ZNK4llvm10BasicBlock16getFirstNonPHIItEv(ptr noundef nonnull align 8 dereferenceable(80) %0) local_unnamed_addr #4 align 2 {
  %2 = getelementptr inbounds nuw i8, ptr %0, i64 56
  %3 = getelementptr inbounds nuw i8, ptr %0, i64 48
  %.sroa.012.017.i = load ptr, ptr %2, align 8
  %.not18.i = icmp eq ptr %.sroa.012.017.i, %3
  br i1 %.not18.i, label %_ZNK4llvm10BasicBlock14getFirstNonPHIEv.exit, label %.lr.ph.i

.lr.ph.i:                                         ; preds = %1, %7
  %.sroa.012.019.i = phi ptr [ %.sroa.012.0.i, %7 ], [ %.sroa.012.017.i, %1 ]
  %4 = getelementptr inbounds i8, ptr %.sroa.012.019.i, i64 -24
  %5 = load i8, ptr %4, align 8
  %6 = icmp eq i8 %5, 84
  br i1 %6, label %7, label %_ZNK4llvm10BasicBlock14getFirstNonPHIEv.exit

7:                                                ; preds = %.lr.ph.i
  %8 = getelementptr inbounds nuw i8, ptr %.sroa.012.019.i, i64 8
  %.sroa.012.0.i = load ptr, ptr %8, align 8
  %.not.i = icmp eq ptr %.sroa.012.0.i, %3
  br i1 %.not.i, label %_ZNK4llvm10BasicBlock14getFirstNonPHIEv.exit, label %.lr.ph.i

_ZNK4llvm10BasicBlock14getFirstNonPHIEv.exit:     ; preds = %.lr.ph.i, %7, %1
  %.sroa.3.sroa.0.0 = phi i64 [ 0, %1 ], [ 1, %.lr.ph.i ], [ 0, %7 ]
  %.sroa.0.0 = phi ptr [ %3, %1 ], [ %.sroa.012.019.i, %.lr.ph.i ], [ %3, %7 ]
  %.fca.0.insert = insertvalue { ptr, i64 } poison, ptr %.sroa.0.0, 0
  %.fca.1.insert = insertvalue { ptr, i64 } %.fca.0.insert, i64 %.sroa.3.sroa.0.0, 1
  ret { ptr, i64 } %.fca.1.insert
}